target datalayout = "e-m:e-p270:32:32-p271:32:32-p272:64:64-i64:64-i128:128-f80:128-n8:16:32:64-S128"
target triple = "x86_64-pc-linux-gnu"

; Function Attrs: mustprogress nounwind uwtable
define hidden void @_ZN2cv4gapi5fluid12cpu_baseline23run_bayergr2rgb_gr_implEPhPPKhi(ptr noundef %0, ptr noundef %1, i32 noundef %2) #5 {
  %4 = alloca ptr, align 8
  %5 = alloca ptr, align 8
  %6 = alloca i32, align 4
  %7 = alloca i32, align 4
  %8 = alloca i8, align 1
  %9 = alloca i32, align 4
  %10 = alloca i32, align 4
  %11 = alloca i32, align 4
  %12 = alloca i32, align 4
  store ptr %0, ptr %4, align 8
  store ptr %1, ptr %5, align 8
  store i32 %2, ptr %6, align 4
  store i32 0, ptr %7, align 4
  store i8 0, ptr %8, align 1
  store i32 1, ptr %12, align 4
  br label %13

13:                                               ; preds = %244, %3
  %14 = load i32, ptr %7, align 4
  %15 = load i32, ptr %6, align 4
  %16 = sub nsw i32 %15, 1
  %17 = icmp slt i32 %14, %16
  br i1 %17, label %18, label %251

18:                                               ; preds = %13
  %19 = load i8, ptr %8, align 1
  %20 = trunc i8 %19 to i1
  br i1 %20, label %106, label %21

21:                                               ; preds = %18
  %22 = load ptr, ptr %5, align 8
  %23 = load i32, ptr %12, align 4
  %24 = sext i32 %23 to i64
  %25 = getelementptr inbounds ptr, ptr %22, i64 %24
  %26 = load ptr, ptr %25, align 8
  %27 = load i32, ptr %7, align 4
  %28 = sub nsw i32 %27, 1
  %29 = sext i32 %28 to i64
  %30 = getelementptr inbounds i8, ptr %26, i64 %29
  %31 = load i8, ptr %30, align 1
  %32 = zext i8 %31 to i32
  %33 = load ptr, ptr %5, align 8
  %34 = load i32, ptr %12, align 4
  %35 = sext i32 %34 to i64
  %36 = getelementptr inbounds ptr, ptr %33, i64 %35
  %37 = load ptr, ptr %36, align 8
  %38 = load i32, ptr %7, align 4
  %39 = add nsw i32 %38, 1
  %40 = sext i32 %39 to i64
  %41 = getelementptr inbounds i8, ptr %37, i64 %40
  %42 = load i8, ptr %41, align 1
  %43 = zext i8 %42 to i32
  %44 = add nsw i32 %32, %43
  %45 = add nsw i32 %44, 1
  %46 = ashr i32 %45, 1
  store i32 %46, ptr %11, align 4
  %47 = load ptr, ptr %5, align 8
  %48 = load i32, ptr %12, align 4
  %49 = sext i32 %48 to i64
  %50 = getelementptr inbounds ptr, ptr %47, i64 %49
  %51 = load ptr, ptr %50, align 8
  %52 = load i32, ptr %7, align 4
  %53 = sext i32 %52 to i64
  %54 = getelementptr inbounds i8, ptr %51, i64 %53
  %55 = load i8, ptr %54, align 1
  %56 = zext i8 %55 to i32
  store i32 %56, ptr %10, align 4
  %57 = load ptr, ptr %5, align 8
  %58 = load i32, ptr %12, align 4
  %59 = sub nsw i32 %58, 1
  %60 = sext i32 %59 to i64
  %61 = getelementptr inbounds ptr, ptr %57, i64 %60
  %62 = load ptr, ptr %61, align 8
  %63 = load i32, ptr %7, align 4
  %64 = sext i32 %63 to i64
  %65 = getelementptr inbounds i8, ptr %62, i64 %64
  %66 = load i8, ptr %65, align 1
  %67 = zext i8 %66 to i32
  %68 = load ptr, ptr %5, align 8
  %69 = load i32, ptr %12, align 4
  %70 = add nsw i32 %69, 1
  %71 = sext i32 %70 to i64
  %72 = getelementptr inbounds ptr, ptr %68, i64 %71
  %73 = load ptr, ptr %72, align 8
  %74 = load i32, ptr %7, align 4
  %75 = sext i32 %74 to i64
  %76 = getelementptr inbounds i8, ptr %73, i64 %75
  %77 = load i8, ptr %76, align 1
  %78 = zext i8 %77 to i32
  %79 = add nsw i32 %67, %78
  %80 = add nsw i32 %79, 1
  %81 = ashr i32 %80, 1
  store i32 %81, ptr %9, align 4
  %82 = load i32, ptr %9, align 4
  %83 = trunc i32 %82 to i8
  %84 = load ptr, ptr %4, align 8
  %85 = load i32, ptr %7, align 4
  %86 = mul nsw i32 %85, 3
  %87 = add nsw i32 %86, 0
  %88 = sext i32 %87 to i64
  %89 = getelementptr inbounds i8, ptr %84, i64 %88
  store i8 %83, ptr %89, align 1
  %90 = load i32, ptr %10, align 4
  %91 = trunc i32 %90 to i8
  %92 = load ptr, ptr %4, align 8
  %93 = load i32, ptr %7, align 4
  %94 = mul nsw i32 %93, 3
  %95 = add nsw i32 %94, 1
  %96 = sext i32 %95 to i64
  %97 = getelementptr inbounds i8, ptr %92, i64 %96
  store i8 %91, ptr %97, align 1
  %98 = load i32, ptr %11, align 4
  %99 = trunc i32 %98 to i8
  %100 = load ptr, ptr %4, align 8
  %101 = load i32, ptr %7, align 4
  %102 = mul nsw i32 %101, 3
  %103 = add nsw i32 %102, 2
  %104 = sext i32 %103 to i64
  %105 = getelementptr inbounds i8, ptr %100, i64 %104
  store i8 %99, ptr %105, align 1
  br label %243

106:                                              ; preds = %18
  %107 = load ptr, ptr %5, align 8
  %108 = load i32, ptr %12, align 4
  %109 = sext i32 %108 to i64
  %110 = getelementptr inbounds ptr, ptr %107, i64 %109
  %111 = load ptr, ptr %110, align 8
  %112 = load i32, ptr %7, align 4
  %113 = sext i32 %112 to i64
  %114 = getelementptr inbounds i8, ptr %111, i64 %113
  %115 = load i8, ptr %114, align 1
  %116 = zext i8 %115 to i32
  store i32 %116, ptr %11, align 4
  %117 = load ptr, ptr %5, align 8
  %118 = load i32, ptr %12, align 4
  %119 = sext i32 %118 to i64
  %120 = getelementptr inbounds ptr, ptr %117, i64 %119
  %121 = load ptr, ptr %120, align 8
  %122 = load i32, ptr %7, align 4
  %123 = sub nsw i32 %122, 1
  %124 = sext i32 %123 to i64
  %125 = getelementptr inbounds i8, ptr %121, i64 %124
  %126 = load i8, ptr %125, align 1
  %127 = zext i8 %126 to i32
  %128 = load ptr, ptr %5, align 8
  %129 = load i32, ptr %12, align 4
  %130 = sext i32 %129 to i64
  %131 = getelementptr inbounds ptr, ptr %128, i64 %130
  %132 = load ptr, ptr %131, align 8
  %133 = load i32, ptr %7, align 4
  %134 = add nsw i32 %133, 1
  %135 = sext i32 %134 to i64
  %136 = getelementptr inbounds i8, ptr %132, i64 %135
  %137 = load i8, ptr %136, align 1
  %138 = zext i8 %137 to i32
  %139 = add nsw i32 %127, %138
  %140 = load ptr, ptr %5, align 8
  %141 = load i32, ptr %12, align 4
  %142 = sub nsw i32 %141, 1
  %143 = sext i32 %142 to i64
  %144 = getelementptr inbounds ptr, ptr %140, i64 %143
  %145 = load ptr, ptr %144, align 8
  %146 = load i32, ptr %7, align 4
  %147 = sext i32 %146 to i64
  %148 = getelementptr inbounds i8, ptr %145, i64 %147
  %149 = load i8, ptr %148, align 1
  %150 = zext i8 %149 to i32
  %151 = add nsw i32 %139, %150
  %152 = load ptr, ptr %5, align 8
  %153 = load i32, ptr %12, align 4
  %154 = add nsw i32 %153, 1
  %155 = sext i32 %154 to i64
  %156 = getelementptr inbounds ptr, ptr %152, i64 %155
  %157 = load ptr, ptr %156, align 8
  %158 = load i32, ptr %7, align 4
  %159 = sext i32 %158 to i64
  %160 = getelementptr inbounds i8, ptr %157, i64 %159
  %161 = load i8, ptr %160, align 1
  %162 = zext i8 %161 to i32
  %163 = add nsw i32 %151, %162
  %164 = add nsw i32 %163, 2
  %165 = ashr i32 %164, 2
  store i32 %165, ptr %10, align 4
  %166 = load ptr, ptr %5, align 8
  %167 = load i32, ptr %12, align 4
  %168 = sub nsw i32 %167, 1
  %169 = sext i32 %168 to i64
  %170 = getelementptr inbounds ptr, ptr %166, i64 %169
  %171 = load ptr, ptr %170, align 8
  %172 = load i32, ptr %7, align 4
  %173 = sub nsw i32 %172, 1
  %174 = sext i32 %173 to i64
  %175 = getelementptr inbounds i8, ptr %171, i64 %174
  %176 = load i8, ptr %175, align 1
  %177 = zext i8 %176 to i32
  %178 = load ptr, ptr %5, align 8
  %179 = load i32, ptr %12, align 4
  %180 = sub nsw i32 %179, 1
  %181 = sext i32 %180 to i64
  %182 = getelementptr inbounds ptr, ptr %178, i64 %181
  %183 = load ptr, ptr %182, align 8
  %184 = load i32, ptr %7, align 4
  %185 = add nsw i32 %184, 1
  %186 = sext i32 %185 to i64
  %187 = getelementptr inbounds i8, ptr %183, i64 %186
  %188 = load i8, ptr %187, align 1
  %189 = zext i8 %188 to i32
  %190 = add nsw i32 %177, %189
  %191 = load ptr, ptr %5, align 8
  %192 = load i32, ptr %12, align 4
  %193 = add nsw i32 %192, 1
  %194 = sext i32 %193 to i64
  %195 = getelementptr inbounds ptr, ptr %191, i64 %194
  %196 = load ptr, ptr %195, align 8
  %197 = load i32, ptr %7, align 4
  %198 = sub nsw i32 %197, 1
  %199 = sext i32 %198 to i64
  %200 = getelementptr inbounds i8, ptr %196, i64 %199
  %201 = load i8, ptr %200, align 1
  %202 = zext i8 %201 to i32
  %203 = add nsw i32 %190, %202
  %204 = load ptr, ptr %5, align 8
  %205 = load i32, ptr %12, align 4
  %206 = add nsw i32 %205, 1
  %207 = sext i32 %206 to i64
  %208 = getelementptr inbounds ptr, ptr %204, i64 %207
  %209 = load ptr, ptr %208, align 8
  %210 = load i32, ptr %7, align 4
  %211 = add nsw i32 %210, 1
  %212 = sext i32 %211 to i64
  %213 = getelementptr inbounds i8, ptr %209, i64 %212
  %214 = load i8, ptr %213, align 1
  %215 = zext i8 %214 to i32
  %216 = add nsw i32 %203, %215
  %217 = add nsw i32 %216, 2
  %218 = ashr i32 %217, 2
  store i32 %218, ptr %9, align 4
  %219 = load i32, ptr %9, align 4
  %220 = trunc i32 %219 to i8
  %221 = load ptr, ptr %4, align 8
  %222 = load i32, ptr %7, align 4
  %223 = mul nsw i32 %222, 3
  %224 = add nsw i32 %223, 0
  %225 = sext i32 %224 to i64
  %226 = getelementptr inbounds i8, ptr %221, i64 %225
  store i8 %220, ptr %226, align 1
  %227 = load i32, ptr %10, align 4
  %228 = trunc i32 %227 to i8
  %229 = load ptr, ptr %4, align 8
  %230 = load i32, ptr %7, align 4
  %231 = mul nsw i32 %230, 3
  %232 = add nsw i32 %231, 1
  %233 = sext i32 %232 to i64
  %234 = getelementptr inbounds i8, ptr %229, i64 %233
  store i8 %228, ptr %234, align 1
  %235 = load i32, ptr %11, align 4
  %236 = trunc i32 %235 to i8
  %237 = load ptr, ptr %4, align 8
  %238 = load i32, ptr %7, align 4
  %239 = mul nsw i32 %238, 3
  %240 = add nsw i32 %239, 2
  %241 = sext i32 %240 to i64
  %242 = getelementptr inbounds i8, ptr %237, i64 %241
  store i8 %236, ptr %242, align 1
  br label %243

243:                                              ; preds = %106, %21
  br label %244

244:                                              ; preds = %243
  %245 = load i32, ptr %7, align 4
  %246 = add nsw i32 %245, 1
  store i32 %246, ptr %7, align 4
  %247 = load i8, ptr %8, align 1
  %248 = trunc i8 %247 to i1
  %249 = xor i1 %248, true
  %250 = zext i1 %249 to i8
  store i8 %250, ptr %8, align 1
  br label %13, !llvm.loop !8

251:                                              ; preds = %13
  %252 = load ptr, ptr %4, align 8
  %253 = getelementptr inbounds i8, ptr %252, i64 3
  %254 = load i8, ptr %253, align 1
  %255 = load ptr, ptr %4, align 8
  %256 = getelementptr inbounds i8, ptr %255, i64 0
  store i8 %254, ptr %256, align 1
  %257 = load ptr, ptr %4, align 8
  %258 = getelementptr inbounds i8, ptr %257, i64 4
  %259 = load i8, ptr %258, align 1
  %260 = load ptr, ptr %4, align 8
  %261 = getelementptr inbounds i8, ptr %260, i64 1
  store i8 %259, ptr %261, align 1
  %262 = load ptr, ptr %4, align 8
  %263 = getelementptr inbounds i8, ptr %262, i64 5
  %264 = load i8, ptr %263, align 1
  %265 = load ptr, ptr %4, align 8
  %266 = getelementptr inbounds i8, ptr %265, i64 2
  store i8 %264, ptr %266, align 1
  %267 = load ptr, ptr %4, align 8
  %268 = load i32, ptr %6, align 4
  %269 = sub nsw i32 %268, 2
  %270 = mul nsw i32 3, %269
  %271 = sext i32 %270 to i64
  %272 = getelementptr inbounds i8, ptr %267, i64 %271
  %273 = load i8, ptr %272, align 1
  %274 = load ptr, ptr %4, align 8
  %275 = load i32, ptr %6, align 4
  %276 = sub nsw i32 %275, 1
  %277 = mul nsw i32 3, %276
  %278 = sext i32 %277 to i64
  %279 = getelementptr inbounds i8, ptr %274, i64 %278
  store i8 %273, ptr %279, align 1
  %280 = load ptr, ptr %4, align 8
  %281 = load i32, ptr %6, align 4
  %282 = sub nsw i32 %281, 2
  %283 = mul nsw i32 3, %282
  %284 = add nsw i32 %283, 1
  %285 = sext i32 %284 to i64
  %286 = getelementptr inbounds i8, ptr %280, i64 %285
  %287 = load i8, ptr %286, align 1
  %288 = load ptr, ptr %4, align 8
  %289 = load i32, ptr %6, align 4
  %290 = sub nsw i32 %289, 1
  %291 = mul nsw i32 3, %290
  %292 = add nsw i32 %291, 1
  %293 = sext i32 %292 to i64
  %294 = getelementptr inbounds i8, ptr %288, i64 %293
  store i8 %287, ptr %294, align 1
  %295 = load ptr, ptr %4, align 8
  %296 = load i32, ptr %6, align 4
  %297 = sub nsw i32 %296, 2
  %298 = mul nsw i32 3, %297
  %299 = add nsw i32 %298, 2
  %300 = sext i32 %299 to i64
  %301 = getelementptr inbounds i8, ptr %295, i64 %300
  %302 = load i8, ptr %301, align 1
  %303 = load ptr, ptr %4, align 8
  %304 = load i32, ptr %6, align 4
  %305 = sub nsw i32 %304, 1
  %306 = mul nsw i32 3, %305
  %307 = add nsw i32 %306, 2
  %308 = sext i32 %307 to i64
  %309 = getelementptr inbounds i8, ptr %303, i64 %308
  store i8 %302, ptr %309, align 1
  ret void
}