; Function Attrs: mustprogress nofree norecurse nosync nounwind memory(read, argmem: readwrite, inaccessiblemem: none) uwtable
define hidden void @_ZN2cv4gapi5fluid12cpu_baseline23run_bayergr2rgb_gr_implEPhPPKhi(ptr nocapture noundef %0, ptr nocapture noundef readonly %1, i32 noundef %2) local_unnamed_addr #6 {
  %4 = add i32 %2, -1
  %5 = icmp sgt i32 %2, 1
  br i1 %5, label %.lr.ph, label %._crit_edge

.lr.ph:                                           ; preds = %3
  %6 = getelementptr inbounds i8, ptr %1, i64 8
  %7 = getelementptr inbounds i8, ptr %1, i64 16
  %wide.trip.count = zext nneg i32 %4 to i64
  br label %8

8:                                                ; preds = %.lr.ph, %85
  %indvars.iv = phi i64 [ 0, %.lr.ph ], [ %indvars.iv.next.pre-phi, %85 ]
  %.085 = phi i32 [ 0, %.lr.ph ], [ %86, %85 ]
  %indvars86 = trunc i32 %.085 to i1
  %9 = load ptr, ptr %6, align 8
  %10 = getelementptr i8, ptr %9, i64 %indvars.iv
  br i1 %indvars86, label %39, label %11

11:                                               ; preds = %8
  %12 = getelementptr i8, ptr %10, i64 -1
  %13 = load i8, ptr %12, align 1
  %14 = zext i8 %13 to i16
  %15 = getelementptr inbounds i8, ptr %10, i64 1
  %16 = load i8, ptr %15, align 1
  %17 = zext i8 %16 to i16
  %18 = add nuw nsw i16 %14, 1
  %19 = add nuw nsw i16 %18, %17
  %20 = lshr i16 %19, 1
  %21 = load i8, ptr %10, align 1
  %22 = load ptr, ptr %1, align 8
  %23 = getelementptr inbounds i8, ptr %22, i64 %indvars.iv
  %24 = load i8, ptr %23, align 1
  %25 = zext i8 %24 to i16
  %26 = load ptr, ptr %7, align 8
  %27 = getelementptr inbounds i8, ptr %26, i64 %indvars.iv
  %28 = load i8, ptr %27, align 1
  %29 = zext i8 %28 to i16
  %30 = add nuw nsw i16 %25, 1
  %31 = add nuw nsw i16 %30, %29
  %32 = lshr i16 %31, 1
  %33 = trunc nuw i16 %32 to i8
  %34 = mul nuw nsw i64 %indvars.iv, 3
  %35 = getelementptr inbounds i8, ptr %0, i64 %34
  store i8 %33, ptr %35, align 1
  %36 = getelementptr inbounds i8, ptr %35, i64 1
  store i8 %21, ptr %36, align 1
  %37 = trunc nuw i16 %20 to i8
  %38 = getelementptr inbounds i8, ptr %35, i64 2
  store i8 %37, ptr %38, align 1
  %.pre = add nuw nsw i64 %indvars.iv, 1
  br label %85

39:                                               ; preds = %8
  %40 = load i8, ptr %10, align 1
  %41 = add nsw i64 %indvars.iv, -1
  %42 = getelementptr inbounds i8, ptr %9, i64 %41
  %43 = load i8, ptr %42, align 1
  %44 = zext i8 %43 to i16
  %45 = add nuw nsw i64 %indvars.iv, 1
  %46 = getelementptr inbounds i8, ptr %9, i64 %45
  %47 = load i8, ptr %46, align 1
  %48 = zext i8 %47 to i16
  %49 = load ptr, ptr %1, align 8
  %50 = getelementptr inbounds i8, ptr %49, i64 %indvars.iv
  %51 = load i8, ptr %50, align 1
  %52 = zext i8 %51 to i16
  %53 = load ptr, ptr %7, align 8
  %54 = getelementptr inbounds i8, ptr %53, i64 %indvars.iv
  %55 = load i8, ptr %54, align 1
  %56 = zext i8 %55 to i16
  %57 = add nuw nsw i16 %44, 2
  %58 = add nuw nsw i16 %57, %48
  %59 = add nuw nsw i16 %58, %52
  %60 = add nuw nsw i16 %59, %56
  %61 = lshr i16 %60, 2
  %62 = getelementptr inbounds i8, ptr %49, i64 %41
  %63 = load i8, ptr %62, align 1
  %64 = zext i8 %63 to i16
  %65 = getelementptr inbounds i8, ptr %49, i64 %45
  %66 = load i8, ptr %65, align 1
  %67 = zext i8 %66 to i16
  %68 = getelementptr inbounds i8, ptr %53, i64 %41
  %69 = load i8, ptr %68, align 1
  %70 = zext i8 %69 to i16
  %71 = getelementptr inbounds i8, ptr %53, i64 %45
  %72 = load i8, ptr %71, align 1
  %73 = zext i8 %72 to i16
  %74 = add nuw nsw i16 %64, 2
  %75 = add nuw nsw i16 %74, %67
  %76 = add nuw nsw i16 %75, %70
  %77 = add nuw nsw i16 %76, %73
  %78 = lshr i16 %77, 2
  %79 = trunc nuw i16 %78 to i8
  %80 = mul nuw nsw i64 %indvars.iv, 3
  %81 = getelementptr inbounds i8, ptr %0, i64 %80
  store i8 %79, ptr %81, align 1
  %82 = trunc nuw i16 %61 to i8
  %83 = getelementptr inbounds i8, ptr %81, i64 1
  store i8 %82, ptr %83, align 1
  %84 = getelementptr inbounds i8, ptr %81, i64 2
  store i8 %40, ptr %84, align 1
  br label %85

85:                                               ; preds = %11, %39
  %indvars.iv.next.pre-phi = phi i64 [ %.pre, %11 ], [ %45, %39 ]
  %86 = add nuw nsw i32 %.085, 1
  %exitcond.not = icmp eq i64 %indvars.iv.next.pre-phi, %wide.trip.count
  br i1 %exitcond.not, label %._crit_edge, label %8, !llvm.loop !10

._crit_edge:                                      ; preds = %85, %3
  %87 = getelementptr inbounds i8, ptr %0, i64 3
  %88 = load i8, ptr %87, align 1
  store i8 %88, ptr %0, align 1
  %89 = getelementptr inbounds i8, ptr %0, i64 4
  %90 = load i8, ptr %89, align 1
  %91 = getelementptr inbounds i8, ptr %0, i64 1
  store i8 %90, ptr %91, align 1
  %92 = getelementptr inbounds i8, ptr %0, i64 5
  %93 = load i8, ptr %92, align 1
  %94 = getelementptr inbounds i8, ptr %0, i64 2
  store i8 %93, ptr %94, align 1
  %95 = mul i32 %2, 3
  %96 = add i32 %95, -6
  %97 = sext i32 %96 to i64
  %98 = getelementptr inbounds i8, ptr %0, i64 %97
  %99 = load i8, ptr %98, align 1
  %100 = mul nsw i32 %4, 3
  %101 = sext i32 %100 to i64
  %102 = getelementptr inbounds i8, ptr %0, i64 %101
  store i8 %99, ptr %102, align 1
  %103 = add i32 %95, -5
  %104 = sext i32 %103 to i64
  %105 = getelementptr inbounds i8, ptr %0, i64 %104
  %106 = load i8, ptr %105, align 1
  %107 = getelementptr i8, ptr %102, i64 1
  store i8 %106, ptr %107, align 1
  %108 = add i32 %95, -4
  %109 = sext i32 %108 to i64
  %110 = getelementptr inbounds i8, ptr %0, i64 %109
  %111 = load i8, ptr %110, align 1
  %112 = getelementptr i8, ptr %102, i64 2
  store i8 %111, ptr %112, align 1
  ret void
}